; Function Attrs: mustprogress nounwind uwtable
define hidden noundef zeroext i1 @_ZNK7TypePtr17would_improve_ptrE14ProfilePtrKind(ptr noundef nonnull align 8 dereferenceable(44) %0, i32 noundef %1) unnamed_addr #0 align 2 {
  %or.cond = icmp ugt i32 %1, 1
  br i1 %or.cond, label %36, label %3

3:                                                ; preds = %2
  %4 = load ptr, ptr %0, align 8
  %5 = getelementptr inbounds i8, ptr %4, i64 160
  %6 = load ptr, ptr %5, align 8
  %7 = tail call noundef zeroext i1 %6(ptr noundef nonnull align 8 dereferenceable(44) %0) #17
  br i1 %7, label %8, label %36

8:                                                ; preds = %3
  %9 = load ptr, ptr %0, align 8
  %10 = getelementptr inbounds i8, ptr %9, i64 112
  %11 = load ptr, ptr %10, align 8
  %12 = tail call noundef zeroext i1 %11(ptr noundef nonnull align 8 dereferenceable(44) %0) #17
  %13 = load ptr, ptr @_ZN7TypePtr8NULL_PTRE, align 8
  %14 = icmp ne ptr %13, %0
  %or.cond9.not = select i1 %12, i1 %14, i1 false
  br i1 %or.cond9.not, label %15, label %36

15:                                               ; preds = %8
  %16 = load ptr, ptr %0, align 8
  %17 = getelementptr inbounds i8, ptr %16, i64 120
  %18 = load ptr, ptr %17, align 8
  %19 = tail call noundef zeroext i1 %18(ptr noundef nonnull align 8 dereferenceable(44) %0) #17
  br i1 %19, label %36, label %20

20:                                               ; preds = %15
  %21 = icmp eq i32 %1, 0
  br i1 %21, label %22, label %35

22:                                               ; preds = %20
  %23 = load ptr, ptr %0, align 8
  %24 = getelementptr inbounds i8, ptr %23, i64 88
  %25 = load ptr, ptr %24, align 8
  %26 = tail call noundef ptr %25(ptr noundef nonnull align 8 dereferenceable(44) %0) #17
  %.not = icmp eq ptr %26, null
  br i1 %.not, label %35, label %27

27:                                               ; preds = %22
  %28 = load ptr, ptr %0, align 8
  %29 = getelementptr inbounds i8, ptr %28, i64 88
  %30 = load ptr, ptr %29, align 8
  %31 = tail call noundef ptr %30(ptr noundef nonnull align 8 dereferenceable(44) %0) #17
  %32 = getelementptr inbounds i8, ptr %31, i64 16
  %33 = load i32, ptr %32, align 8
  %34 = add i32 %33, -23
  %or.cond.i = icmp ult i32 %34, -3
  %.not611 = icmp eq ptr %31, null
  %.not6 = or i1 %.not611, %or.cond.i
  br i1 %.not6, label %35, label %36

35:                                               ; preds = %27, %22, %20
  br label %36

36:                                               ; preds = %27, %15, %8, %3, %2, %35
  %.0 = phi i1 [ true, %35 ], [ false, %2 ], [ false, %3 ], [ false, %8 ], [ false, %15 ], [ false, %27 ]
  ret i1 %.0
}